Certificate:
    Data:
        Version: 3 (0x2)
        Serial Number:
            a2:a9:08:69:1c:d4:83:a7:72:44:db:4b:6e:6e:21:b4
        Signature Algorithm: sha256WithRSAEncryption
        Issuer: C=US, ST=CA, L=SanFrancisco, O=Fort-Funston, OU=My Organizational Unit, CN=Easy-RSA CA/emailAddress=mail@host.domain
        Validity
            Not Before: Oct 26 19:03:20 2021 GMT
            Not After : Oct 10 19:03:20 2024 GMT
        Subject: C=US, ST=CA, L=SanFrancisco, O=Fort-Funston, OU=My Organizational Unit, CN=example/emailAddress=mail@host.domain
        Subject Public Key Info:
            Public Key Algorithm: rsaEncryption
                RSA Public-Key: (2048 bit)
                Modulus:
                    00:c1:6d:3f:8f:45:24:7f:69:a4:55:b0:44:c4:89:
                    52:98:4c:e7:85:c1:f1:9b:f1:59:5c:31:78:38:1c:
                    5e:34:10:3f:4f:d8:7e:46:a2:2f:9b:8c:eb:e5:76:
                    ef:94:9b:73:12:54:2b:f1:2e:0c:f5:c6:04:98:2f:
                    f1:27:a5:26:ad:bc:62:43:ed:07:1c:2f:9e:7e:a6:
                    98:39:1d:6b:30:db:0f:79:b3:4a:fe:a0:21:83:3e:
                    bd:82:8f:9e:de:20:0d:7b:35:ad:fa:d0:65:6c:fd:
                    4b:d1:fc:55:5f:a4:cb:63:d6:b6:4e:84:99:a7:f1:
                    83:76:f0:22:ee:0e:98:c3:2a:db:00:65:ea:00:d4:
                    58:0d:00:99:3b:10:be:b5:9d:99:c6:e4:f2:73:66:
                    42:06:4a:a0:b3:91:04:24:a9:c7:d7:a4:f1:21:4f:
                    f9:b2:59:eb:4a:fc:68:68:bf:b7:71:56:36:1e:6d:
                    11:63:24:85:b8:28:ab:6a:ee:b8:39:75:0a:5b:9a:
                    04:cb:32:57:38:e7:a5:69:c3:72:2e:34:e9:9c:fd:
                    2f:cc:58:00:6e:ce:da:e4:ef:55:3a:97:f5:c1:27:
                    65:d1:8e:b5:b6:cc:ab:c6:c2:e4:a7:af:e3:d3:8c:
                    17:07:5f:e2:c2:d9:37:56:47:6a:0c:58:7f:af:06:
                    4e:91
                Exponent: 65537 (0x10001)
        X509v3 extensions:
            X509v3 Basic Constraints: 
                CA:FALSE
            X509v3 Subject Key Identifier: 
                BD:A6:16:51:F2:DE:50:E2:D7:EA:D1:63:27:DC:AB:AD:19:CE:2A:5C
            X509v3 Authority Key Identifier: 
                keyid:6E:7D:8F:11:59:33:5E:32:F2:D7:2F:90:5B:32:AC:63:E5:23:97:23
                DirName:/C=US/ST=CA/L=SanFrancisco/O=Fort-Funston/OU=My Organizational Unit/CN=Easy-RSA CA/emailAddress=mail@host.domain
                serial:0A:60:4C:89:A4:69:33:99:77:75:98:86:C4:1A:46:CB:C4:15:E6:03

            X509v3 Extended Key Usage: 
                TLS Web Server Authentication
            X509v3 Key Usage: 
                Digital Signature, Key Encipherment
            X509v3 Subject Alternative Name: 
                DNS:example
    Signature Algorithm: sha256WithRSAEncryption
         1f:48:ca:21:0f:32:dd:5d:aa:d1:b5:fc:28:fc:80:1f:2b:a0:
         4b:48:46:6f:f2:4a:b4:d5:94:00:cb:4c:8e:ba:71:8d:af:38:
         e9:b1:be:a1:28:78:3c:b5:9a:11:29:24:34:23:06:c9:a6:9b:
         42:ae:ce:b7:e5:31:51:40:bf:e0:b7:3b:7f:db:d1:bc:be:ab:
         b5:ed:8a:d9:74:68:68:9c:94:d9:e3:b9:c2:11:68:df:7c:ce:
         6f:1a:e3:28:61:9c:6e:16:0b:0d:30:ca:4a:7a:e3:9c:f8:73:
         6b:d4:7a:63:79:5d:57:35:ac:d3:55:09:ec:b7:fb:02:75:56:
         8a:59:5a:41:eb:5b:58:68:3a:6a:1f:71:39:61:d1:77:e6:2a:
         c8:d6:b7:ad:2a:4d:96:63:43:ac:08:6a:a4:1d:05:d3:51:36:
         28:08:6f:53:c5:d1:c4:c5:e5:94:c5:0c:03:e1:f1:45:e3:62:
         1a:26:93:2a:0a:2b:e1:af:44:60:eb:3e:61:6c:a0:63:35:c3:
         b7:ee:bb:2a:f9:43:fc:5d:d4:b4:a9:d0:25:72:b4:02:f3:ad:
         4c:b8:7c:c5:0c:02:f0:d4:2e:c4:80:68:f3:9c:45:e3:f2:3c:
         70:f7:8c:8f:20:cc:04:c3:48:56:aa:2c:55:8b:13:64:98:90:
         69:4c:29:0a
-----BEGIN CERTIFICATE-----
MIIFEjCCA/qgAwIBAgIRAKKpCGkc1IOnckTbS25uIbQwDQYJKoZIhvcNAQELBQAw
gaAxCzAJBgNVBAYTAlVTMQswCQYDVQQIDAJDQTEVMBMGA1UEBwwMU2FuRnJhbmNp
c2NvMRUwEwYDVQQKDAxGb3J0LUZ1bnN0b24xHzAdBgNVBAsMFk15IE9yZ2FuaXph
dGlvbmFsIFVuaXQxFDASBgNVBAMMC0Vhc3ktUlNBIENBMR8wHQYJKoZIhvcNAQkB
FhBtYWlsQGhvc3QuZG9tYWluMB4XDTIxMTAyNjE5MDMyMFoXDTI0MTAxMDE5MDMy
MFowgZwxCzAJBgNVBAYTAlVTMQswCQYDVQQIDAJDQTEVMBMGA1UEBwwMU2FuRnJh
bmNpc2NvMRUwEwYDVQQKDAxGb3J0LUZ1bnN0b24xHzAdBgNVBAsMFk15IE9yZ2Fu
aXphdGlvbmFsIFVuaXQxEDAOBgNVBAMMB2V4YW1wbGUxHzAdBgkqhkiG9w0BCQEW
EG1haWxAaG9zdC5kb21haW4wggEiMA0GCSqGSIb3DQEBAQUAA4IBDwAwggEKAoIB
AQDBbT+PRSR/aaRVsETEiVKYTOeFwfGb8VlcMXg4HF40ED9P2H5Goi+bjOvldu+U
m3MSVCvxLgz1xgSYL/EnpSatvGJD7QccL55+ppg5HWsw2w95s0r+oCGDPr2Cj57e
IA17Na360GVs/UvR/FVfpMtj1rZOhJmn8YN28CLuDpjDKtsAZeoA1FgNAJk7EL61
nZnG5PJzZkIGSqCzkQQkqcfXpPEhT/myWetK/Ghov7dxVjYebRFjJIW4KKtq7rg5
dQpbmgTLMlc456Vpw3IuNOmc/S/MWABuztrk71U6l/XBJ2XRjrW2zKvGwuSnr+PT
jBcHX+LC2TdWR2oMWH+vBk6RAgMBAAGjggFHMIIBQzAJBgNVHRMEAjAAMB0GA1Ud
DgQWBBS9phZR8t5Q4tfq0WMn3KutGc4qXDCB4AYDVR0jBIHYMIHVgBRufY8RWTNe
MvLXL5BbMqxj5SOXI6GBpqSBozCBoDELMAkGA1UEBhMCVVMxCzAJBgNVBAgMAkNB
MRUwEwYDVQQHDAxTYW5GcmFuY2lzY28xFTATBgNVBAoMDEZvcnQtRnVuc3RvbjEf
MB0GA1UECwwWTXkgT3JnYW5pemF0aW9uYWwgVW5pdDEUMBIGA1UEAwwLRWFzeS1S
U0EgQ0ExHzAdBgkqhkiG9w0BCQEWEG1haWxAaG9zdC5kb21haW6CFApgTImkaTOZ
d3WYhsQaRsvEFeYDMBMGA1UdJQQMMAoGCCsGAQUFBwMBMAsGA1UdDwQEAwIFoDAS
BgNVHREECzAJggdleGFtcGxlMA0GCSqGSIb3DQEBCwUAA4IBAQAfSMohDzLdXarR
tfwo/IAfK6BLSEZv8kq01ZQAy0yOunGNrzjpsb6hKHg8tZoRKSQ0IwbJpptCrs63
5TFRQL/gtzt/29G8vqu17YrZdGhonJTZ47nCEWjffM5vGuMoYZxuFgsNMMpKeuOc
+HNr1HpjeV1XNazTVQnst/sCdVaKWVpB61tYaDpqH3E5YdF35irI1retKk2WY0Os
CGqkHQXTUTYoCG9TxdHExeWUxQwD4fFF42IaJpMqCivhr0Rg6z5hbKBjNcO37rsq
+UP8XdS0qdAlcrQC861MuHzFDALw1C7EgGjznEXj8jxw94yPIMwEw0hWqixVixNk
mJBpTCkK
-----END CERTIFICATE-----
